	.file	"figuras3D.c"
	.text
.Ltext0:
	.file 0 "/home/sambek99/Documents/GitHub/Taller1ProgSis" "figuras3D.c"
	.section	.rodata
.LC0:
	.string	"Ingrese el lado del cubo: "
.LC1:
	.string	"%f"
	.align 8
.LC3:
	.string	"Error: El lado debe ser mayor que cero."
	.text
	.globl	superficieCubo
	.type	superficieCubo, @function
superficieCubo:
.LFB0:
	.file 1 "figuras3D.c"
	.loc 1 18 24
	.cfi_startproc
	endbr64
	pushq	%rbp
	.cfi_def_cfa_offset 16
	.cfi_offset 6, -16
	movq	%rsp, %rbp
	.cfi_def_cfa_register 6
	subq	$16, %rsp
	.loc 1 18 24
	movq	%fs:40, %rax
	movq	%rax, -8(%rbp)
	xorl	%eax, %eax
	.loc 1 20 5
	leaq	.LC0(%rip), %rax
	movq	%rax, %rdi
	movl	$0, %eax
	call	printf@PLT
	.loc 1 21 5
	leaq	-12(%rbp), %rax
	movq	%rax, %rsi
	leaq	.LC1(%rip), %rax
	movq	%rax, %rdi
	movl	$0, %eax
	call	__isoc99_scanf@PLT
	.loc 1 22 14
	movss	-12(%rbp), %xmm1
	.loc 1 22 8
	pxor	%xmm0, %xmm0
	comiss	%xmm1, %xmm0
	jb	.L8
	.loc 1 23 9
	leaq	.LC3(%rip), %rax
	movq	%rax, %rdi
	call	puts@PLT
	.loc 1 24 16
	movss	.LC4(%rip), %xmm0
	jmp	.L5
.L8:
	.loc 1 26 14
	movss	-12(%rbp), %xmm1
	movss	.LC5(%rip), %xmm0
	mulss	%xmm0, %xmm1
	.loc 1 26 21
	movss	-12(%rbp), %xmm0
	mulss	%xmm1, %xmm0
.L5:
	.loc 1 27 1
	movq	-8(%rbp), %rax
	subq	%fs:40, %rax
	je	.L6
	call	__stack_chk_fail@PLT
.L6:
	leave
	.cfi_def_cfa 7, 8
	ret
	.cfi_endproc
.LFE0:
	.size	superficieCubo, .-superficieCubo
	.globl	volumenCubo
	.type	volumenCubo, @function
volumenCubo:
.LFB1:
	.loc 1 29 21
	.cfi_startproc
	endbr64
	pushq	%rbp
	.cfi_def_cfa_offset 16
	.cfi_offset 6, -16
	movq	%rsp, %rbp
	.cfi_def_cfa_register 6
	subq	$16, %rsp
	.loc 1 29 21
	movq	%fs:40, %rax
	movq	%rax, -8(%rbp)
	xorl	%eax, %eax
	.loc 1 31 5
	leaq	.LC0(%rip), %rax
	movq	%rax, %rdi
	movl	$0, %eax
	call	printf@PLT
	.loc 1 32 5
	leaq	-12(%rbp), %rax
	movq	%rax, %rsi
	leaq	.LC1(%rip), %rax
	movq	%rax, %rdi
	movl	$0, %eax
	call	__isoc99_scanf@PLT
	.loc 1 33 14
	movss	-12(%rbp), %xmm1
	.loc 1 33 8
	pxor	%xmm0, %xmm0
	comiss	%xmm1, %xmm0
	jb	.L16
	.loc 1 34 9
	leaq	.LC3(%rip), %rax
	movq	%rax, %rdi
	call	puts@PLT
	.loc 1 35 16
	movss	.LC4(%rip), %xmm0
	jmp	.L13
.L16:
	.loc 1 37 17
	movss	-12(%rbp), %xmm1
	movss	-12(%rbp), %xmm0
	mulss	%xmm0, %xmm1
	.loc 1 37 24
	movss	-12(%rbp), %xmm0
	mulss	%xmm1, %xmm0
.L13:
	.loc 1 38 1
	movq	-8(%rbp), %rax
	subq	%fs:40, %rax
	je	.L14
	call	__stack_chk_fail@PLT
.L14:
	leave
	.cfi_def_cfa 7, 8
	ret
	.cfi_endproc
.LFE1:
	.size	volumenCubo, .-volumenCubo
	.section	.rodata
	.align 8
.LC6:
	.string	"Ingrese el largo del cuboide: "
	.align 8
.LC7:
	.string	"Ingrese el ancho del cuboide: "
.LC8:
	.string	"Ingrese el alto del cuboide: "
	.align 8
.LC9:
	.string	"Error: Todas las dimensiones deben ser mayores que cero."
	.text
	.globl	superficieCuboide
	.type	superficieCuboide, @function
superficieCuboide:
.LFB2:
	.loc 1 43 27
	.cfi_startproc
	endbr64
	pushq	%rbp
	.cfi_def_cfa_offset 16
	.cfi_offset 6, -16
	movq	%rsp, %rbp
	.cfi_def_cfa_register 6
	subq	$32, %rsp
	.loc 1 43 27
	movq	%fs:40, %rax
	movq	%rax, -8(%rbp)
	xorl	%eax, %eax
	.loc 1 45 5
	leaq	.LC6(%rip), %rax
	movq	%rax, %rdi
	movl	$0, %eax
	call	printf@PLT
	.loc 1 46 5
	leaq	-20(%rbp), %rax
	movq	%rax, %rsi
	leaq	.LC1(%rip), %rax
	movq	%rax, %rdi
	movl	$0, %eax
	call	__isoc99_scanf@PLT
	.loc 1 47 5
	leaq	.LC7(%rip), %rax
	movq	%rax, %rdi
	movl	$0, %eax
	call	printf@PLT
	.loc 1 48 5
	leaq	-16(%rbp), %rax
	movq	%rax, %rsi
	leaq	.LC1(%rip), %rax
	movq	%rax, %rdi
	movl	$0, %eax
	call	__isoc99_scanf@PLT
	.loc 1 49 5
	leaq	.LC8(%rip), %rax
	movq	%rax, %rdi
	movl	$0, %eax
	call	printf@PLT
	.loc 1 50 5
	leaq	-12(%rbp), %rax
	movq	%rax, %rsi
	leaq	.LC1(%rip), %rax
	movq	%rax, %rdi
	movl	$0, %eax
	call	__isoc99_scanf@PLT
	.loc 1 51 15
	movss	-20(%rbp), %xmm1
	.loc 1 51 8
	pxor	%xmm0, %xmm0
	comiss	%xmm1, %xmm0
	jnb	.L18
	.loc 1 51 29 discriminator 1
	movss	-16(%rbp), %xmm1
	.loc 1 51 20 discriminator 1
	pxor	%xmm0, %xmm0
	comiss	%xmm1, %xmm0
	jnb	.L18
	.loc 1 51 42 discriminator 2
	movss	-12(%rbp), %xmm1
	.loc 1 51 34 discriminator 2
	pxor	%xmm0, %xmm0
	comiss	%xmm1, %xmm0
	jb	.L24
.L18:
	.loc 1 52 9
	leaq	.LC9(%rip), %rax
	movq	%rax, %rdi
	call	puts@PLT
	.loc 1 53 16
	movss	.LC4(%rip), %xmm0
	jmp	.L22
.L24:
	.loc 1 55 23
	movss	-20(%rbp), %xmm1
	movss	-16(%rbp), %xmm0
	mulss	%xmm0, %xmm1
	.loc 1 55 39
	movss	-20(%rbp), %xmm2
	movss	-12(%rbp), %xmm0
	mulss	%xmm2, %xmm0
	.loc 1 55 31
	addss	%xmm0, %xmm1
	.loc 1 55 54
	movss	-16(%rbp), %xmm2
	movss	-12(%rbp), %xmm0
	mulss	%xmm2, %xmm0
	.loc 1 55 46
	addss	%xmm1, %xmm0
	.loc 1 55 14
	addss	%xmm0, %xmm0
.L22:
	.loc 1 56 1
	movq	-8(%rbp), %rax
	subq	%fs:40, %rax
	je	.L23
	call	__stack_chk_fail@PLT
.L23:
	leave
	.cfi_def_cfa 7, 8
	ret
	.cfi_endproc
.LFE2:
	.size	superficieCuboide, .-superficieCuboide
	.globl	volumenCuboide
	.type	volumenCuboide, @function
volumenCuboide:
.LFB3:
	.loc 1 58 24
	.cfi_startproc
	endbr64
	pushq	%rbp
	.cfi_def_cfa_offset 16
	.cfi_offset 6, -16
	movq	%rsp, %rbp
	.cfi_def_cfa_register 6
	subq	$32, %rsp
	.loc 1 58 24
	movq	%fs:40, %rax
	movq	%rax, -8(%rbp)
	xorl	%eax, %eax
	.loc 1 60 5
	leaq	.LC6(%rip), %rax
	movq	%rax, %rdi
	movl	$0, %eax
	call	printf@PLT
	.loc 1 61 5
	leaq	-20(%rbp), %rax
	movq	%rax, %rsi
	leaq	.LC1(%rip), %rax
	movq	%rax, %rdi
	movl	$0, %eax
	call	__isoc99_scanf@PLT
	.loc 1 62 5
	leaq	.LC7(%rip), %rax
	movq	%rax, %rdi
	movl	$0, %eax
	call	printf@PLT
	.loc 1 63 5
	leaq	-16(%rbp), %rax
	movq	%rax, %rsi
	leaq	.LC1(%rip), %rax
	movq	%rax, %rdi
	movl	$0, %eax
	call	__isoc99_scanf@PLT
	.loc 1 64 5
	leaq	.LC8(%rip), %rax
	movq	%rax, %rdi
	movl	$0, %eax
	call	printf@PLT
	.loc 1 65 5
	leaq	-12(%rbp), %rax
	movq	%rax, %rsi
	leaq	.LC1(%rip), %rax
	movq	%rax, %rdi
	movl	$0, %eax
	call	__isoc99_scanf@PLT
	.loc 1 66 15
	movss	-20(%rbp), %xmm1
	.loc 1 66 8
	pxor	%xmm0, %xmm0
	comiss	%xmm1, %xmm0
	jnb	.L26
	.loc 1 66 29 discriminator 1
	movss	-16(%rbp), %xmm1
	.loc 1 66 20 discriminator 1
	pxor	%xmm0, %xmm0
	comiss	%xmm1, %xmm0
	jnb	.L26
	.loc 1 66 42 discriminator 2
	movss	-12(%rbp), %xmm1
	.loc 1 66 34 discriminator 2
	pxor	%xmm0, %xmm0
	comiss	%xmm1, %xmm0
	jb	.L32
.L26:
	.loc 1 67 9
	leaq	.LC9(%rip), %rax
	movq	%rax, %rdi
	call	puts@PLT
	.loc 1 68 16
	movss	.LC4(%rip), %xmm0
	jmp	.L30
.L32:
	.loc 1 70 18
	movss	-20(%rbp), %xmm1
	movss	-16(%rbp), %xmm0
	mulss	%xmm0, %xmm1
	.loc 1 70 26
	movss	-12(%rbp), %xmm0
	mulss	%xmm1, %xmm0
.L30:
	.loc 1 71 1
	movq	-8(%rbp), %rax
	subq	%fs:40, %rax
	je	.L31
	call	__stack_chk_fail@PLT
.L31:
	leave
	.cfi_def_cfa 7, 8
	ret
	.cfi_endproc
.LFE3:
	.size	volumenCuboide, .-volumenCuboide
	.section	.rodata
	.align 8
.LC10:
	.string	"Ingrese el radio del cilindro: "
	.align 8
.LC11:
	.string	"Ingrese la altura del cilindro: "
	.align 8
.LC12:
	.string	"Error: El radio y la altura deben ser mayores que cero."
	.text
	.globl	superficieCilindro
	.type	superficieCilindro, @function
superficieCilindro:
.LFB4:
	.loc 1 76 28
	.cfi_startproc
	endbr64
	pushq	%rbp
	.cfi_def_cfa_offset 16
	.cfi_offset 6, -16
	movq	%rsp, %rbp
	.cfi_def_cfa_register 6
	subq	$16, %rsp
	.loc 1 76 28
	movq	%fs:40, %rax
	movq	%rax, -8(%rbp)
	xorl	%eax, %eax
	.loc 1 78 5
	leaq	.LC10(%rip), %rax
	movq	%rax, %rdi
	movl	$0, %eax
	call	printf@PLT
	.loc 1 79 5
	leaq	-16(%rbp), %rax
	movq	%rax, %rsi
	leaq	.LC1(%rip), %rax
	movq	%rax, %rdi
	movl	$0, %eax
	call	__isoc99_scanf@PLT
	.loc 1 80 5
	leaq	.LC11(%rip), %rax
	movq	%rax, %rdi
	movl	$0, %eax
	call	printf@PLT
	.loc 1 81 5
	leaq	-12(%rbp), %rax
	movq	%rax, %rsi
	leaq	.LC1(%rip), %rax
	movq	%rax, %rdi
	movl	$0, %eax
	call	__isoc99_scanf@PLT
	.loc 1 82 15
	movss	-16(%rbp), %xmm1
	.loc 1 82 8
	pxor	%xmm0, %xmm0
	comiss	%xmm1, %xmm0
	jnb	.L34
	.loc 1 82 30 discriminator 1
	movss	-12(%rbp), %xmm1
	.loc 1 82 20 discriminator 1
	pxor	%xmm0, %xmm0
	comiss	%xmm1, %xmm0
	jb	.L40
.L34:
	.loc 1 83 9
	leaq	.LC12(%rip), %rax
	movq	%rax, %rdi
	call	puts@PLT
	.loc 1 84 16
	movss	.LC4(%rip), %xmm0
	jmp	.L38
.L40:
	.loc 1 86 21
	movss	-16(%rbp), %xmm0
	pxor	%xmm1, %xmm1
	cvtss2sd	%xmm0, %xmm1
	movsd	.LC13(%rip), %xmm0
	mulsd	%xmm0, %xmm1
	.loc 1 86 38
	movss	-16(%rbp), %xmm2
	movss	-12(%rbp), %xmm0
	addss	%xmm2, %xmm0
	cvtss2sd	%xmm0, %xmm0
	.loc 1 86 29
	mulsd	%xmm1, %xmm0
	cvtsd2ss	%xmm0, %xmm0
.L38:
	.loc 1 87 1
	movq	-8(%rbp), %rax
	subq	%fs:40, %rax
	je	.L39
	call	__stack_chk_fail@PLT
.L39:
	leave
	.cfi_def_cfa 7, 8
	ret
	.cfi_endproc
.LFE4:
	.size	superficieCilindro, .-superficieCilindro
	.globl	volumenCilindro
	.type	volumenCilindro, @function
volumenCilindro:
.LFB5:
	.loc 1 89 25
	.cfi_startproc
	endbr64
	pushq	%rbp
	.cfi_def_cfa_offset 16
	.cfi_offset 6, -16
	movq	%rsp, %rbp
	.cfi_def_cfa_register 6
	subq	$16, %rsp
	.loc 1 89 25
	movq	%fs:40, %rax
	movq	%rax, -8(%rbp)
	xorl	%eax, %eax
	.loc 1 91 5
	leaq	.LC10(%rip), %rax
	movq	%rax, %rdi
	movl	$0, %eax
	call	printf@PLT
	.loc 1 92 5
	leaq	-16(%rbp), %rax
	movq	%rax, %rsi
	leaq	.LC1(%rip), %rax
	movq	%rax, %rdi
	movl	$0, %eax
	call	__isoc99_scanf@PLT
	.loc 1 93 5
	leaq	.LC11(%rip), %rax
	movq	%rax, %rdi
	movl	$0, %eax
	call	printf@PLT
	.loc 1 94 5
	leaq	-12(%rbp), %rax
	movq	%rax, %rsi
	leaq	.LC1(%rip), %rax
	movq	%rax, %rdi
	movl	$0, %eax
	call	__isoc99_scanf@PLT
	.loc 1 95 15
	movss	-16(%rbp), %xmm1
	.loc 1 95 8
	pxor	%xmm0, %xmm0
	comiss	%xmm1, %xmm0
	jnb	.L42
	.loc 1 95 30 discriminator 1
	movss	-12(%rbp), %xmm1
	.loc 1 95 20 discriminator 1
	pxor	%xmm0, %xmm0
	comiss	%xmm1, %xmm0
	jb	.L48
.L42:
	.loc 1 96 9
	leaq	.LC12(%rip), %rax
	movq	%rax, %rdi
	call	puts@PLT
	.loc 1 97 16
	movss	.LC4(%rip), %xmm0
	jmp	.L46
.L48:
	.loc 1 99 17
	movss	-16(%rbp), %xmm0
	pxor	%xmm1, %xmm1
	cvtss2sd	%xmm0, %xmm1
	movsd	.LC14(%rip), %xmm0
	mulsd	%xmm0, %xmm1
	.loc 1 99 25
	movss	-16(%rbp), %xmm0
	cvtss2sd	%xmm0, %xmm0
	mulsd	%xmm0, %xmm1
	.loc 1 99 33
	movss	-12(%rbp), %xmm0
	cvtss2sd	%xmm0, %xmm0
	mulsd	%xmm1, %xmm0
	cvtsd2ss	%xmm0, %xmm0
.L46:
	.loc 1 100 1
	movq	-8(%rbp), %rax
	subq	%fs:40, %rax
	je	.L47
	call	__stack_chk_fail@PLT
.L47:
	leave
	.cfi_def_cfa 7, 8
	ret
	.cfi_endproc
.LFE5:
	.size	volumenCilindro, .-volumenCilindro
	.section	.rodata
	.align 8
.LC15:
	.string	"Ingrese el radio de la esfera: "
	.align 8
.LC16:
	.string	"Error: El radio debe ser mayor que cero."
	.text
	.globl	superficieEsfera
	.type	superficieEsfera, @function
superficieEsfera:
.LFB6:
	.loc 1 105 26
	.cfi_startproc
	endbr64
	pushq	%rbp
	.cfi_def_cfa_offset 16
	.cfi_offset 6, -16
	movq	%rsp, %rbp
	.cfi_def_cfa_register 6
	subq	$16, %rsp
	.loc 1 105 26
	movq	%fs:40, %rax
	movq	%rax, -8(%rbp)
	xorl	%eax, %eax
	.loc 1 107 5
	leaq	.LC15(%rip), %rax
	movq	%rax, %rdi
	movl	$0, %eax
	call	printf@PLT
	.loc 1 108 5
	leaq	-12(%rbp), %rax
	movq	%rax, %rsi
	leaq	.LC1(%rip), %rax
	movq	%rax, %rdi
	movl	$0, %eax
	call	__isoc99_scanf@PLT
	.loc 1 109 15
	movss	-12(%rbp), %xmm1
	.loc 1 109 8
	pxor	%xmm0, %xmm0
	comiss	%xmm1, %xmm0
	jb	.L56
	.loc 1 110 9
	leaq	.LC16(%rip), %rax
	movq	%rax, %rdi
	call	puts@PLT
	.loc 1 111 16
	movss	.LC4(%rip), %xmm0
	jmp	.L53
.L56:
	.loc 1 113 21
	movss	-12(%rbp), %xmm0
	pxor	%xmm1, %xmm1
	cvtss2sd	%xmm0, %xmm1
	movsd	.LC17(%rip), %xmm0
	mulsd	%xmm0, %xmm1
	.loc 1 113 29
	movss	-12(%rbp), %xmm0
	cvtss2sd	%xmm0, %xmm0
	mulsd	%xmm1, %xmm0
	cvtsd2ss	%xmm0, %xmm0
.L53:
	.loc 1 114 1
	movq	-8(%rbp), %rax
	subq	%fs:40, %rax
	je	.L54
	call	__stack_chk_fail@PLT
.L54:
	leave
	.cfi_def_cfa 7, 8
	ret
	.cfi_endproc
.LFE6:
	.size	superficieEsfera, .-superficieEsfera
	.globl	volumenEsfera
	.type	volumenEsfera, @function
volumenEsfera:
.LFB7:
	.loc 1 116 23
	.cfi_startproc
	endbr64
	pushq	%rbp
	.cfi_def_cfa_offset 16
	.cfi_offset 6, -16
	movq	%rsp, %rbp
	.cfi_def_cfa_register 6
	subq	$16, %rsp
	.loc 1 116 23
	movq	%fs:40, %rax
	movq	%rax, -8(%rbp)
	xorl	%eax, %eax
	.loc 1 118 5
	leaq	.LC15(%rip), %rax
	movq	%rax, %rdi
	movl	$0, %eax
	call	printf@PLT
	.loc 1 119 5
	leaq	-12(%rbp), %rax
	movq	%rax, %rsi
	leaq	.LC1(%rip), %rax
	movq	%rax, %rdi
	movl	$0, %eax
	call	__isoc99_scanf@PLT
	.loc 1 120 15
	movss	-12(%rbp), %xmm1
	.loc 1 120 8
	pxor	%xmm0, %xmm0
	comiss	%xmm1, %xmm0
	jb	.L64
	.loc 1 121 9
	leaq	.LC16(%rip), %rax
	movq	%rax, %rdi
	call	puts@PLT
	.loc 1 122 16
	movss	.LC4(%rip), %xmm0
	jmp	.L61
.L64:
	.loc 1 124 31
	movss	-12(%rbp), %xmm0
	pxor	%xmm1, %xmm1
	cvtss2sd	%xmm0, %xmm1
	movsd	.LC18(%rip), %xmm0
	mulsd	%xmm0, %xmm1
	.loc 1 124 39
	movss	-12(%rbp), %xmm0
	cvtss2sd	%xmm0, %xmm0
	mulsd	%xmm0, %xmm1
	.loc 1 124 47
	movss	-12(%rbp), %xmm0
	cvtss2sd	%xmm0, %xmm0
	mulsd	%xmm1, %xmm0
	cvtsd2ss	%xmm0, %xmm0
.L61:
	.loc 1 125 1
	movq	-8(%rbp), %rax
	subq	%fs:40, %rax
	je	.L62
	call	__stack_chk_fail@PLT
.L62:
	leave
	.cfi_def_cfa 7, 8
	ret
	.cfi_endproc
.LFE7:
	.size	volumenEsfera, .-volumenEsfera
	.section	.rodata
.LC19:
	.string	"Ingrese el radio del cono: "
	.align 8
.LC20:
	.string	"Ingrese la generatriz del cono: "
	.align 8
.LC21:
	.string	"Error: El radio y la generatriz deben ser mayores que cero."
	.text
	.globl	superficieCono
	.type	superficieCono, @function
superficieCono:
.LFB8:
	.loc 1 130 24
	.cfi_startproc
	endbr64
	pushq	%rbp
	.cfi_def_cfa_offset 16
	.cfi_offset 6, -16
	movq	%rsp, %rbp
	.cfi_def_cfa_register 6
	subq	$16, %rsp
	.loc 1 130 24
	movq	%fs:40, %rax
	movq	%rax, -8(%rbp)
	xorl	%eax, %eax
	.loc 1 132 5
	leaq	.LC19(%rip), %rax
	movq	%rax, %rdi
	movl	$0, %eax
	call	printf@PLT
	.loc 1 133 5
	leaq	-16(%rbp), %rax
	movq	%rax, %rsi
	leaq	.LC1(%rip), %rax
	movq	%rax, %rdi
	movl	$0, %eax
	call	__isoc99_scanf@PLT
	.loc 1 134 5
	leaq	.LC20(%rip), %rax
	movq	%rax, %rdi
	movl	$0, %eax
	call	printf@PLT
	.loc 1 135 5
	leaq	-12(%rbp), %rax
	movq	%rax, %rsi
	leaq	.LC1(%rip), %rax
	movq	%rax, %rdi
	movl	$0, %eax
	call	__isoc99_scanf@PLT
	.loc 1 136 15
	movss	-16(%rbp), %xmm1
	.loc 1 136 8
	pxor	%xmm0, %xmm0
	comiss	%xmm1, %xmm0
	jnb	.L66
	.loc 1 136 34 discriminator 1
	movss	-12(%rbp), %xmm1
	.loc 1 136 20 discriminator 1
	pxor	%xmm0, %xmm0
	comiss	%xmm1, %xmm0
	jb	.L72
.L66:
	.loc 1 137 9
	leaq	.LC21(%rip), %rax
	movq	%rax, %rdi
	call	puts@PLT
	.loc 1 138 16
	movss	.LC4(%rip), %xmm0
	jmp	.L70
.L72:
	.loc 1 140 17
	movss	-16(%rbp), %xmm0
	pxor	%xmm1, %xmm1
	cvtss2sd	%xmm0, %xmm1
	movsd	.LC14(%rip), %xmm0
	mulsd	%xmm0, %xmm1
	.loc 1 140 34
	movss	-16(%rbp), %xmm2
	movss	-12(%rbp), %xmm0
	addss	%xmm2, %xmm0
	cvtss2sd	%xmm0, %xmm0
	.loc 1 140 25
	mulsd	%xmm1, %xmm0
	cvtsd2ss	%xmm0, %xmm0
.L70:
	.loc 1 141 1
	movq	-8(%rbp), %rax
	subq	%fs:40, %rax
	je	.L71
	call	__stack_chk_fail@PLT
.L71:
	leave
	.cfi_def_cfa 7, 8
	ret
	.cfi_endproc
.LFE8:
	.size	superficieCono, .-superficieCono
	.section	.rodata
.LC22:
	.string	"Ingrese la altura del cono: "
	.text
	.globl	volumenCono
	.type	volumenCono, @function
volumenCono:
.LFB9:
	.loc 1 143 21
	.cfi_startproc
	endbr64
	pushq	%rbp
	.cfi_def_cfa_offset 16
	.cfi_offset 6, -16
	movq	%rsp, %rbp
	.cfi_def_cfa_register 6
	subq	$16, %rsp
	.loc 1 143 21
	movq	%fs:40, %rax
	movq	%rax, -8(%rbp)
	xorl	%eax, %eax
	.loc 1 145 5
	leaq	.LC19(%rip), %rax
	movq	%rax, %rdi
	movl	$0, %eax
	call	printf@PLT
	.loc 1 146 5
	leaq	-16(%rbp), %rax
	movq	%rax, %rsi
	leaq	.LC1(%rip), %rax
	movq	%rax, %rdi
	movl	$0, %eax
	call	__isoc99_scanf@PLT
	.loc 1 147 5
	leaq	.LC22(%rip), %rax
	movq	%rax, %rdi
	movl	$0, %eax
	call	printf@PLT
	.loc 1 148 5
	leaq	-12(%rbp), %rax
	movq	%rax, %rsi
	leaq	.LC1(%rip), %rax
	movq	%rax, %rdi
	movl	$0, %eax
	call	__isoc99_scanf@PLT
	.loc 1 149 15
	movss	-16(%rbp), %xmm1
	.loc 1 149 8
	pxor	%xmm0, %xmm0
	comiss	%xmm1, %xmm0
	jnb	.L74
	.loc 1 149 30 discriminator 1
	movss	-12(%rbp), %xmm1
	.loc 1 149 20 discriminator 1
	pxor	%xmm0, %xmm0
	comiss	%xmm1, %xmm0
	jb	.L80
.L74:
	.loc 1 150 9
	leaq	.LC12(%rip), %rax
	movq	%rax, %rdi
	call	puts@PLT
	.loc 1 151 16
	movss	.LC4(%rip), %xmm0
	jmp	.L78
.L80:
	.loc 1 153 18
	movss	-16(%rbp), %xmm0
	pxor	%xmm1, %xmm1
	cvtss2sd	%xmm0, %xmm1
	movsd	.LC14(%rip), %xmm0
	mulsd	%xmm0, %xmm1
	.loc 1 153 26
	movss	-16(%rbp), %xmm0
	cvtss2sd	%xmm0, %xmm0
	mulsd	%xmm0, %xmm1
	.loc 1 153 34
	movss	-12(%rbp), %xmm0
	cvtss2sd	%xmm0, %xmm0
	mulsd	%xmm1, %xmm0
	.loc 1 153 44
	movsd	.LC23(%rip), %xmm1
	divsd	%xmm1, %xmm0
	cvtsd2ss	%xmm0, %xmm0
.L78:
	.loc 1 154 1
	movq	-8(%rbp), %rax
	subq	%fs:40, %rax
	je	.L79
	call	__stack_chk_fail@PLT
.L79:
	leave
	.cfi_def_cfa 7, 8
	ret
	.cfi_endproc
.LFE9:
	.size	volumenCono, .-volumenCono
	.section	.rodata
	.align 4
.LC4:
	.long	-1082130432
	.align 4
.LC5:
	.long	1086324736
	.align 8
.LC13:
	.long	1413754136
	.long	1075388923
	.align 8
.LC14:
	.long	1413754136
	.long	1074340347
	.align 8
.LC17:
	.long	1413754136
	.long	1076437499
	.align 8
.LC18:
	.long	942502757
	.long	1074839890
	.align 8
.LC23:
	.long	0
	.long	1074266112
	.text
.Letext0:
	.file 2 "/usr/include/stdio.h"
	.section	.note.GNU-stack,"",@progbits
	.section	.note.gnu.property,"a"
	.align 8
	.long	1f - 0f
	.long	4f - 1f
	.long	5
0:
	.string	"GNU"
1:
	.align 8
	.long	0xc0000002
	.long	3f - 2f
2:
	.long	0x3
3:
	.align 8
4:
